EXPORTS
	_ZN10CVFTracker11InitializeLERK5TSize @ 1 NONAME
	_ZN10CVFTracker14RegisterImageLERK10CFbsBitmapR18CPanoramaTransform @ 2 NONAME
	_ZN10CVFTracker14RegisterImageLERK11CImageFrameR18CPanoramaTransform @ 3 NONAME
	_ZN10CVFTracker4NewLEv @ 4 NONAME
	_ZN10CVFTracker5ResetEv @ 5 NONAME
	_ZN10CVFTracker9ExtensionE4TUid @ 6 NONAME
	_ZN13TPanoramaLensC1EPfS0_fS0_mm @ 7 NONAME
	_ZN13TPanoramaLensC1Ev @ 8 NONAME
	_ZN13TPanoramaLensC2EPfS0_fS0_mm @ 9 NONAME
	_ZN13TPanoramaLensC2Ev @ 10 NONAME
	_ZN14CImagePanorama10AddBufferLERK6TDesC8R18CPanoramaTransform @ 11 NONAME
	_ZN14CImagePanorama11InitializeLERK5TSizeRK13TPanoramaLensRK10TDirection @ 12 NONAME
	_ZN14CImagePanorama17CurrentImageSizeLER5TSize @ 13 NONAME
	_ZN14CImagePanorama4NewLEv @ 14 NONAME
	_ZN14CImagePanorama7RenderLER5RFile @ 15 NONAME
	_ZN14CImagePanorama7RenderLER5RFileRK5TSizeiRK4TUid @ 16 NONAME
	_ZN14CImagePanorama7RenderLERK10CFbsBitmap @ 17 NONAME
	_ZN14CImagePanorama7RenderLERK10CFbsBitmapi @ 18 NONAME
	_ZN14CImagePanorama7RenderLERK11CImageFrame @ 19 NONAME
	_ZN14CImagePanorama7RenderLERK11CImageFramei @ 20 NONAME
	_ZN14CImagePanorama7RenderLERK7TDesC16 @ 21 NONAME
	_ZN14CImagePanorama7RenderLERK7TDesC16RK5TSizeiRK4TUid @ 22 NONAME
	_ZN14CImagePanorama7RenderLERP6HBufC8 @ 23 NONAME
	_ZN14CImagePanorama7RenderLERP6HBufC8mRK5TSizeiRK4TUid @ 24 NONAME
	_ZN14CImagePanorama8AddFileLERK7TDesC16R18CPanoramaTransform @ 25 NONAME
	_ZN14CImagePanorama9AddImageLERK10CFbsBitmapR18CPanoramaTransform @ 26 NONAME
	_ZN14CImagePanorama9AddImageLERK11CImageFrameR18CPanoramaTransform @ 27 NONAME
	_ZN14CImagePanorama9ExtensionE4TUid @ 28 NONAME
	_ZN18CPanoramaTransform12GetDirectionER10TDirection @ 29 NONAME
	_ZN18CPanoramaTransform12GetDirectionER10TDirectionRi @ 30 NONAME
	_ZN18CPanoramaTransform12SetDirectionER10TDirection @ 31 NONAME
	_ZN18CPanoramaTransform12SetDirectionER10TDirectioni @ 32 NONAME
	_ZN18CPanoramaTransform15SetTranslationLERK6TPointRK5TSize @ 33 NONAME
	_ZN18CPanoramaTransform4NewLEv @ 34 NONAME
	_ZNK10CVFTracker15IsTimeToCaptureER10TDirection @ 35 NONAME
	_ZNK10CVFTracker15IsTimeToCaptureER10TDirectioni @ 36 NONAME
	_ZNK18CPanoramaTransform14GetTranslationER6TPointR5TSize @ 37 NONAME
	_ZTI10CVFTracker @ 38 NONAME
	_ZTI14CImagePanorama @ 39 NONAME
	_ZTI18CPanoramaTransform @ 40 NONAME
	_ZTV10CVFTracker @ 41 NONAME
	_ZTV14CImagePanorama @ 42 NONAME
	_ZTV18CPanoramaTransform @ 43 NONAME
	_ZN10CVFTrackerD0Ev @ 44 NONAME
	_ZN10CVFTrackerD1Ev @ 45 NONAME
	_ZN10CVFTrackerD2Ev @ 46 NONAME
	_ZN14CImagePanoramaD0Ev @ 47 NONAME
	_ZN14CImagePanoramaD1Ev @ 48 NONAME
	_ZN14CImagePanoramaD2Ev @ 49 NONAME
	_ZN18CPanoramaTransformD0Ev @ 50 NONAME
	_ZN18CPanoramaTransformD1Ev @ 51 NONAME
	_ZN18CPanoramaTransformD2Ev @ 52 NONAME

