EXPORTS
	_ZN14ImageProcessor11TEffectBlur8SetRectLE5TRect @ 1 NONAME
	_ZN14ImageProcessor11TOutputInfo12SetSamplingLER4TUid @ 2 NONAME
	_ZN14ImageProcessor11TOutputInfo15SetJpegQualityLERf @ 3 NONAME
	_ZN14ImageProcessor12TEffectStamp14SetStampLevelLEii @ 4 NONAME
	_ZN14ImageProcessor13CImgProcessor10InputInfoLEv @ 5 NONAME
	_ZN14ImageProcessor13CImgProcessor10SetOutputLER10CFbsBitmapPS1_ @ 6 NONAME
	_ZN14ImageProcessor13CImgProcessor10SetOutputLER11CImageFrame @ 7 NONAME
	_ZN14ImageProcessor13CImgProcessor10SetOutputLER5RBuf8RK4TUidS5_ @ 8 NONAME
	_ZN14ImageProcessor13CImgProcessor10SetOutputLER5RFileRK4TUidS5_ @ 9 NONAME
	_ZN14ImageProcessor13CImgProcessor10SetOutputLERK7TDesC16RK4TUidS6_ @ 10 NONAME
	_ZN14ImageProcessor13CImgProcessor11InitializeLEv @ 11 NONAME
	_ZN14ImageProcessor13CImgProcessor11InitializeLEy @ 12 NONAME
	_ZN14ImageProcessor13CImgProcessor11OutputInfoLEv @ 13 NONAME
	_ZN14ImageProcessor13CImgProcessor11SetOptionsLEy @ 14 NONAME
	_ZN14ImageProcessor13CImgProcessor12CreateInputLER10CFbsBitmap @ 15 NONAME
	_ZN14ImageProcessor13CImgProcessor12CreateInputLER11CImageFrame @ 16 NONAME
	_ZN14ImageProcessor13CImgProcessor12CreateInputLERK5TSizeRK4TRgb @ 17 NONAME
	_ZN14ImageProcessor13CImgProcessor13InputUpdatedLEv @ 18 NONAME
	_ZN14ImageProcessor13CImgProcessor13ProgressInfoLEv @ 19 NONAME
	_ZN14ImageProcessor13CImgProcessor13SetInputRectLERK5TRect @ 20 NONAME
	_ZN14ImageProcessor13CImgProcessor15ApplyOperationLENS0_10TOperationE @ 21 NONAME
	_ZN14ImageProcessor13CImgProcessor19SetBackgroundColorLERK4TRgb @ 22 NONAME
	_ZN14ImageProcessor13CImgProcessor4NewLER3RFsRNS_21MImgProcessorObserverE4TUid @ 23 NONAME
	_ZN14ImageProcessor13CImgProcessor5RedoLEv @ 24 NONAME
	_ZN14ImageProcessor13CImgProcessor5UndoLEv @ 25 NONAME
	_ZN14ImageProcessor13CImgProcessor6CancelEv @ 26 NONAME
	_ZN14ImageProcessor13CImgProcessor6ResetLEv @ 27 NONAME
	_ZN14ImageProcessor13CImgProcessor7EffectLE4TUid @ 28 NONAME
	_ZN14ImageProcessor13CImgProcessor8OverlayLEv @ 29 NONAME
	_ZN14ImageProcessor13CImgProcessor8PreviewLEi @ 30 NONAME
	_ZN14ImageProcessor13CImgProcessor8ProcessLERK5TSizei @ 31 NONAME
	_ZN14ImageProcessor13CImgProcessor8ProcessLEv @ 32 NONAME
	_ZN14ImageProcessor13CImgProcessor8RedoAllLEv @ 33 NONAME
	_ZN14ImageProcessor13CImgProcessor8UndoAllLEv @ 34 NONAME
	_ZN14ImageProcessor13CImgProcessor9ExtensionE4TUid @ 35 NONAME
	_ZN14ImageProcessor13CImgProcessor9SetInputLER5RFileRK4TUidS5_ @ 36 NONAME
	_ZN14ImageProcessor13CImgProcessor9SetInputLER9TMMSourceRK4TUidS5_ @ 37 NONAME
	_ZN14ImageProcessor13CImgProcessor9SetInputLERK10CFbsBitmapPS2_ @ 38 NONAME
	_ZN14ImageProcessor13CImgProcessor9SetInputLERK11CImageFrame @ 39 NONAME
	_ZN14ImageProcessor13CImgProcessor9SetInputLERK6TDesC8RK4TUidS6_ @ 40 NONAME
	_ZN14ImageProcessor13CImgProcessor9SetInputLERK7TDesC16RK4TUidS6_ @ 41 NONAME
	_ZN14ImageProcessor13TEffectBorder9SetInputLERK10CFbsBitmap @ 42 NONAME
	_ZN14ImageProcessor13TEffectBorder9SetInputLERK6TDesC8 @ 43 NONAME
	_ZN14ImageProcessor13TEffectBorder9SetInputLERK7TDesC16 @ 44 NONAME
	_ZN14ImageProcessor13TEffectLevels12SetWGBLevelLEfff @ 45 NONAME
	_ZN14ImageProcessor13TEffectSketch14SetSketchModeLENS0_11TSketchModeE @ 46 NONAME
	_ZN14ImageProcessor14TEffectCartoon17SetDistinctEdgesLEi @ 47 NONAME
	_ZN14ImageProcessor15TEffectRotation12SetRotationLENS0_18TRotationScaleModeEf @ 48 NONAME
	_ZN14ImageProcessor16TEffectSpotLight24SetSpotLightOrientationLERK6TPointmf @ 49 NONAME
	_ZN14ImageProcessor19TEffectColorization16SetColorizationLE4TRgbii @ 50 NONAME
	_ZN14ImageProcessor19TEffectWhiteBalance16SetWhiteBalanceLENS0_17TWhiteBalanceModeE4TRgb @ 51 NONAME
	_ZN14ImageProcessor21TEffectRgbColorAdjust12SetRGBLevelLEfff @ 52 NONAME
	_ZN14ImageProcessor21TGeometricalOperation13SetOperationLENS_13CImgProcessor10TOperationE @ 53 NONAME
	_ZN14ImageProcessor27TEffectCustomTransformation9SetInputLERK6TDesC8 @ 54 NONAME
	_ZN14ImageProcessor27TEffectCustomTransformation9SetInputLERK7TDesC16 @ 55 NONAME
	_ZN14ImageProcessor7TEffect4EndLEv @ 56 NONAME
	_ZN14ImageProcessor7TEffect6BeginLEv @ 57 NONAME
	_ZN14ImageProcessor7TEffect6ResetLEv @ 58 NONAME
	_ZN14ImageProcessor7TEffect9ExtensionE4TUid @ 59 NONAME
	_ZN14ImageProcessor7TEffect9SetLevelLEf @ 60 NONAME
	_ZN14ImageProcessor7TEffect9SetLevelLEi @ 61 NONAME
	_ZN14ImageProcessor8TOverlay4EndLEv @ 62 NONAME
	_ZN14ImageProcessor8TOverlay4SetLERK5TSizeRK6TPointf @ 63 NONAME
	_ZN14ImageProcessor8TOverlay4SetLEffRK6TPointf @ 64 NONAME
	_ZN14ImageProcessor8TOverlay6BeginLEv @ 65 NONAME
	_ZN14ImageProcessor8TOverlay6ResetLEv @ 66 NONAME
	_ZN14ImageProcessor8TOverlay9SetInputLER5RFileRK4TUidS5_ @ 67 NONAME
	_ZN14ImageProcessor8TOverlay9SetInputLER9TMMSourceRK4TUidS5_ @ 68 NONAME
	_ZN14ImageProcessor8TOverlay9SetInputLERK10CFbsBitmapPS2_ @ 69 NONAME
	_ZN14ImageProcessor8TOverlay9SetInputLERK11CImageFrame @ 70 NONAME
	_ZN14ImageProcessor8TOverlay9SetInputLERK6TDesC8RK4TUidS6_ @ 71 NONAME
	_ZN14ImageProcessor8TOverlay9SetInputLERK7TDesC16RK4TUidS6_ @ 72 NONAME
	_ZN14ImageProcessor8TPreview10SetOutputLER10CFbsBitmap @ 73 NONAME
	_ZN14ImageProcessor8TPreview10SetOutputLER11CImageFrame @ 74 NONAME
	_ZN14ImageProcessor8TPreview11InitializeLEv @ 75 NONAME
	_ZN14ImageProcessor8TPreview12SetPreviewIdEi @ 76 NONAME
	_ZN14ImageProcessor8TPreview13CreateOutputLERK5TSizeRK16TFrameFormatBaseRK16TFrameLayoutBase @ 77 NONAME
	_ZN14ImageProcessor8TPreview13UninitializeLEv @ 78 NONAME
	_ZN14ImageProcessor8TPreview19GetPanLevelSettingsERfS1_ @ 79 NONAME
	_ZN14ImageProcessor8TPreview20GetZoomLevelSettingsERfS1_ @ 80 NONAME
	_ZN14ImageProcessor8TPreview6CancelEv @ 81 NONAME
	_ZN14ImageProcessor8TPreview6ResetLEv @ 82 NONAME
	_ZN14ImageProcessor8TPreview7RenderLEv @ 83 NONAME
	_ZN14ImageProcessor8TPreview7SetPanLEff @ 84 NONAME
	_ZN14ImageProcessor8TPreview8SetZoomLEf @ 85 NONAME
	_ZNK14ImageProcessor10TInputInfo12DisplayModeLEv @ 86 NONAME
	_ZNK14ImageProcessor10TInputInfo13BitsPerPixelLEv @ 87 NONAME
	_ZNK14ImageProcessor10TInputInfo13IsInterlacedLEv @ 88 NONAME
	_ZNK14ImageProcessor10TInputInfo14IsProgressiveLEv @ 89 NONAME
	_ZNK14ImageProcessor10TInputInfo17ImageFrameFormatLEv @ 90 NONAME
	_ZNK14ImageProcessor10TInputInfo5SizeLEv @ 91 NONAME
	_ZNK14ImageProcessor10TInputInfo7FormatLER4TUidS2_ @ 92 NONAME
	_ZNK14ImageProcessor10TInputInfo9HasAlphaLEv @ 93 NONAME
	_ZNK14ImageProcessor10TInputInfo9SamplingLEv @ 94 NONAME
	_ZNK14ImageProcessor11TEffectBlur5RectLEv @ 95 NONAME
	_ZNK14ImageProcessor12TEffectStamp15ThresholdLevelLEv @ 96 NONAME
	_ZNK14ImageProcessor12TEffectStamp16SmoothnessLevelLEv @ 97 NONAME
	_ZNK14ImageProcessor13CImgProcessor12CurrentSizeLEv @ 98 NONAME
	_ZNK14ImageProcessor13CImgProcessor16BackgroundColorLEv @ 99 NONAME
	_ZNK14ImageProcessor13CImgProcessor16SupportedOptionsEv @ 100 NONAME
	_ZNK14ImageProcessor13CImgProcessor17SupportedEffectsLER6RArrayI4TUidE @ 101 NONAME
	_ZNK14ImageProcessor13CImgProcessor19SupportedOperationsEv @ 102 NONAME
	_ZNK14ImageProcessor13CImgProcessor21ConvertMimeTypeToUidLERK6TDesC8R4TUidS5_ @ 103 NONAME
	_ZNK14ImageProcessor13CImgProcessor21ConvertUidToMimeTypeLER5TDes8RK4TUidS5_ @ 104 NONAME
	_ZNK14ImageProcessor13CImgProcessor22SupportedInputFormatsLER6RArrayI4TUidE @ 105 NONAME
	_ZNK14ImageProcessor13CImgProcessor23SupportedOutputFormatsLER6RArrayI4TUidE @ 106 NONAME
	_ZNK14ImageProcessor13CImgProcessor25CalculatePixelBufferSizeLE5TSize12TDisplayModem @ 107 NONAME
	_ZNK14ImageProcessor13CImgProcessor25CalculatePixelBufferSizeLE5TSizeRK4TUidm @ 108 NONAME
	_ZNK14ImageProcessor13CImgProcessor25SupportedInputSubFormatsLE4TUidR6RArrayIS1_E @ 109 NONAME
	_ZNK14ImageProcessor13CImgProcessor26ConvertFileExtensionToUidLERK7TDesC16R4TUidS5_ @ 110 NONAME
	_ZNK14ImageProcessor13CImgProcessor26ConvertUidToFileExtensionLER6TDes16RK4TUidS5_ @ 111 NONAME
	_ZNK14ImageProcessor13CImgProcessor26SupportedOutputSubFormatsLE4TUidR6RArrayIS1_E @ 112 NONAME
	_ZNK14ImageProcessor13CImgProcessor27SupportedInputDisplayModesLER6RArrayI12TDisplayModeE @ 113 NONAME
	_ZNK14ImageProcessor13CImgProcessor28SupportedOutputDisplayModesLER6RArrayI12TDisplayModeE @ 114 NONAME
	_ZNK14ImageProcessor13CImgProcessor32SupportedInputImageFrameFormatsLER6RArrayI4TUidE @ 115 NONAME
	_ZNK14ImageProcessor13CImgProcessor33SupportedOutputImageFrameFormatsLER6RArrayI4TUidE @ 116 NONAME
	_ZNK14ImageProcessor13CImgProcessor5StateEv @ 117 NONAME
	_ZNK14ImageProcessor13CImgProcessor7OptionsEv @ 118 NONAME
	_ZNK14ImageProcessor13CImgProcessor8CanRedoLEv @ 119 NONAME
	_ZNK14ImageProcessor13CImgProcessor8CanUndoLEv @ 120 NONAME
	_ZNK14ImageProcessor13TEffectLevels10GrayLevelLEv @ 121 NONAME
	_ZNK14ImageProcessor13TEffectLevels11BlackLevelLEv @ 122 NONAME
	_ZNK14ImageProcessor13TEffectLevels11WhiteLevelLEv @ 123 NONAME
	_ZNK14ImageProcessor13TEffectSketch11SketchModeLEv @ 124 NONAME
	_ZNK14ImageProcessor13TProgressInfo17CurrentIterationLEv @ 125 NONAME
	_ZNK14ImageProcessor13TProgressInfo19NumberOfIterationsLEv @ 126 NONAME
	_ZNK14ImageProcessor13TProgressInfo9ExtensionE4TUid @ 127 NONAME
	_ZNK14ImageProcessor14TEffectCartoon14DistinctEdgesLEv @ 128 NONAME
	_ZNK14ImageProcessor15TEffectRotation10ScaleModeLEv @ 129 NONAME
	_ZNK14ImageProcessor15TEffectRotation6AngleLEv @ 130 NONAME
	_ZNK14ImageProcessor16TEffectSpotLight21SpotLightOrientationLER6TPointRmRf @ 131 NONAME
	_ZNK14ImageProcessor19TEffectColorization15ReferenceColorLEv @ 132 NONAME
	_ZNK14ImageProcessor19TEffectColorization18LuminanceStrengthLEv @ 133 NONAME
	_ZNK14ImageProcessor19TEffectColorization20ChrominanceStrengthLEv @ 134 NONAME
	_ZNK14ImageProcessor19TEffectWhiteBalance17WhiteBalanceModeLEv @ 135 NONAME
	_ZNK14ImageProcessor19TEffectWhiteBalance20ReferenceWhiteColorLEv @ 136 NONAME
	_ZNK14ImageProcessor21TEffectRgbColorAdjust10BlueLevelLEv @ 137 NONAME
	_ZNK14ImageProcessor21TEffectRgbColorAdjust11GreenLevelLEv @ 138 NONAME
	_ZNK14ImageProcessor21TEffectRgbColorAdjust9RedLevelLEv @ 139 NONAME
	_ZNK14ImageProcessor21TGeometricalOperation9OperationEv @ 140 NONAME
	_ZNK14ImageProcessor7TEffect13LevelSettingsERfS1_S1_ @ 141 NONAME
	_ZNK14ImageProcessor7TEffect13LevelSettingsERiS1_S1_ @ 142 NONAME
	_ZNK14ImageProcessor7TEffect6LevelLERf @ 143 NONAME
	_ZNK14ImageProcessor7TEffect6LevelLERi @ 144 NONAME
	_ZNK14ImageProcessor7TEffect9InputTypeEv @ 145 NONAME
	_ZNK14ImageProcessor8TOverlay22SupportedInputFormatsLER6RArrayI4TUidE @ 146 NONAME
	_ZNK14ImageProcessor8TOverlay25SupportedInputSubFormatsLE4TUidR6RArrayIS1_E @ 147 NONAME
	_ZNK14ImageProcessor8TOverlay27SupportedInputDisplayModesLER6RArrayI12TDisplayModeE @ 148 NONAME
	_ZNK14ImageProcessor8TOverlay32SupportedInputImageFrameFormatsLER6RArrayI4TUidE @ 149 NONAME
	_ZNK14ImageProcessor8TOverlay5SizeLEv @ 150 NONAME
	_ZNK14ImageProcessor8TOverlay6AngleLEv @ 151 NONAME
	_ZNK14ImageProcessor8TOverlay9GetScaleLERfS1_ @ 152 NONAME
	_ZNK14ImageProcessor8TOverlay9PositionLEv @ 153 NONAME
	_ZNK14ImageProcessor8TPreview11CanvasAreaLEv @ 154 NONAME
	_ZNK14ImageProcessor8TPreview21CanvasToCurrentCoordLERK6TPointRS1_ @ 155 NONAME
	_ZNK14ImageProcessor8TPreview22PreviewToCurrentCoordLERK6TPointRS1_ @ 156 NONAME
	_ZNK14ImageProcessor8TPreview27SupportedImageFrameFormatsLER6RArrayI4TUidE @ 157 NONAME
	_ZNK14ImageProcessor8TPreview28SupportedOutputDisplayModesLER6RArrayI12TDisplayModeE @ 158 NONAME
	_ZNK14ImageProcessor8TPreview4PanLERfS1_ @ 159 NONAME
	_ZNK14ImageProcessor8TPreview5SizeLEv @ 160 NONAME
	_ZNK14ImageProcessor8TPreview5StateEv @ 161 NONAME
	_ZNK14ImageProcessor8TPreview5ZoomLEv @ 162 NONAME
	_ZNK14ImageProcessor8TPreview9PreviewIdEv @ 163 NONAME
	_ZTIN14ImageProcessor13CImgProcessorE @ 164 NONAME
	_ZTVN14ImageProcessor13CImgProcessorE @ 165 NONAME
	_ZN14ImageProcessor13CImgProcessorD0Ev @ 166 NONAME
	_ZN14ImageProcessor13CImgProcessorD1Ev @ 167 NONAME
	_ZN14ImageProcessor13CImgProcessorD2Ev @ 168 NONAME
	_ZN14ImageProcessor13CImgProcessor9SetInputLER14CImagePanorama @ 169 NONAME

