EXPORTS
	_ZN22CICLFrameworkTestSuite4NewLEv @ 1 NONAME
	_ZN11TScalerCapsC1Eiii @ 2 NONAME
	_ZN11TScalerCapsC1Ev @ 3 NONAME
	_ZN11TScalerCapsC2Eiii @ 4 NONAME
	_ZN11TScalerCapsC2Ev @ 5 NONAME
	_ZN13CImageDecoder10OperationLEv @ 6 NONAME
	_ZN13CImageDecoder11CustomAsyncEP14TRequestStatusi @ 7 NONAME
	_ZN13CImageDecoder11CustomSyncLEi @ 8 NONAME
	_ZN13CImageDecoder13GetFileTypesLER13RPointerArrayI22CFileExtensionMIMETypeE @ 9 NONAME
	_ZN13CImageDecoder13SetImageTypeLEi @ 10 NONAME
	_ZN13CImageDecoder14BlockStreamerLEv @ 11 NONAME
	_ZN13CImageDecoder14GetImageTypesLER13RPointerArrayI21CImageTypeDescriptionE @ 12 NONAME
	_ZN13CImageDecoder15ContinueConvertEP14TRequestStatus @ 13 NONAME
	_ZN13CImageDecoder16GetMimeTypeDataLERK6TDesC8R5TDes8 @ 14 NONAME
	_ZN13CImageDecoder16GetMimeTypeFileLER3RFsRK7TDesC16R5TDes8 @ 15 NONAME
	_ZN13CImageDecoder16ReservedVirtual1Ev @ 16 NONAME
	_ZN13CImageDecoder16ReservedVirtual2Ev @ 17 NONAME
	_ZN13CImageDecoder16ReservedVirtual3Ev @ 18 NONAME
	_ZN13CImageDecoder16ReservedVirtual4Ev @ 19 NONAME
	_ZN13CImageDecoder16SetAgentPropertyEN13ContentAccess14TAgentPropertyEi @ 20 NONAME
	_ZN13CImageDecoder16SetClippingRectLEPK5TRect @ 21 NONAME
	_ZN13CImageDecoder17FrameInfoStringsLEi @ 22 NONAME
	_ZN13CImageDecoder17GetImageSubTypesLE4TUidR13RPointerArrayI21CImageTypeDescriptionE @ 23 NONAME
	_ZN13CImageDecoder18FrameInfoStringsLCEi @ 24 NONAME
	_ZN13CImageDecoder18GetDestinationSizeER5TSizei @ 25 NONAME
	_ZN13CImageDecoder20GetPluginPropertiesLE4TUidR6RArrayIS0_E @ 26 NONAME
	_ZN13CImageDecoder24SetDecoderThreadPriorityE15TThreadPriority @ 27 NONAME
	_ZN13CImageDecoder25ContinueProcessingHeaderLEv @ 28 NONAME
	_ZN13CImageDecoder28GetInterfaceImplementationsLEPK4TUidiR6RArrayIS0_E @ 29 NONAME
	_ZN13CImageDecoder28GetInterfaceImplementationsLERK6RArrayI4TUidERS2_ @ 30 NONAME
	_ZN13CImageDecoder29GetImplementationInformationLE4TUid @ 31 NONAME
	_ZN13CImageDecoder6CancelEv @ 32 NONAME
	_ZN13CImageDecoder7ConvertEP14TRequestStatusR10CFbsBitmapS3_i @ 33 NONAME
	_ZN13CImageDecoder7ConvertEP14TRequestStatusR10CFbsBitmapi @ 34 NONAME
	_ZN13CImageDecoder7PrepareEP14TRequestStatus @ 35 NONAME
	_ZN13CImageDecoder7ScalerLEv @ 36 NONAME
	_ZN13CImageDecoder8DataNewLER3RFsRK6TDesC8NS_8TOptionsE4TUidS6_S6_ @ 37 NONAME
	_ZN13CImageDecoder8DataNewLER3RFsRK6TDesC8S4_NS_8TOptionsE @ 38 NONAME
	_ZN13CImageDecoder8FileNewLER3RFsRK7TDesC16N13ContentAccess7TIntentENS_8TOptionsE4TUidS8_S8_ @ 39 NONAME
	_ZN13CImageDecoder8FileNewLER3RFsRK7TDesC16NS_8TOptionsE4TUidS6_S6_ @ 40 NONAME
	_ZN13CImageDecoder8FileNewLER3RFsRK7TDesC16RK6TDesC8N13ContentAccess7TIntentENS_8TOptionsE @ 41 NONAME
	_ZN13CImageDecoder8FileNewLER3RFsRK7TDesC16RK6TDesC8NS_8TOptionsE @ 42 NONAME
	_ZN13CImageDecoder8FileNewLER3RFsRK9TMMSourceNS_8TOptionsE4TUidS6_S6_ @ 43 NONAME
	_ZN13CImageDecoder8FileNewLER3RFsRK9TMMSourceRK6TDesC8NS_8TOptionsE @ 44 NONAME
	_ZN13CImageDecoder8FileNewLER5RFileN13ContentAccess7TIntentENS_8TOptionsE4TUidS5_S5_ @ 45 NONAME
	_ZN13CImageDecoder8FileNewLER5RFileRK6TDesC8N13ContentAccess7TIntentENS_8TOptionsE @ 46 NONAME
	_ZN13CImageDecoderC1Ev @ 47 NONAME
	_ZN13CImageDecoderC2Ev @ 48 NONAME
	_ZN13CImageDecoderD0Ev @ 49 NONAME
	_ZN13CImageDecoderD1Ev @ 50 NONAME
	_ZN13CImageDecoderD2Ev @ 51 NONAME
	_ZN13CImageEncoder10OperationLEv @ 52 NONAME
	_ZN13CImageEncoder11CustomAsyncEP14TRequestStatusi @ 53 NONAME
	_ZN13CImageEncoder11CustomSyncLEi @ 54 NONAME
	_ZN13CImageEncoder12SetThumbnailEi @ 55 NONAME
	_ZN13CImageEncoder13GetFileTypesLER13RPointerArrayI22CFileExtensionMIMETypeE @ 56 NONAME
	_ZN13CImageEncoder14BlockStreamerLEv @ 57 NONAME
	_ZN13CImageEncoder14GetImageTypesLER13RPointerArrayI21CImageTypeDescriptionE @ 58 NONAME
	_ZN13CImageEncoder16ReservedVirtual1Ev @ 59 NONAME
	_ZN13CImageEncoder16ReservedVirtual2Ev @ 60 NONAME
	_ZN13CImageEncoder16ReservedVirtual3Ev @ 61 NONAME
	_ZN13CImageEncoder16ReservedVirtual4Ev @ 62 NONAME
	_ZN13CImageEncoder17GetImageSubTypesLE4TUidR13RPointerArrayI21CImageTypeDescriptionE @ 63 NONAME
	_ZN13CImageEncoder20GetPluginPropertiesLE4TUidR6RArrayIS0_E @ 64 NONAME
	_ZN13CImageEncoder24SetEncoderThreadPriorityE15TThreadPriority @ 65 NONAME
	_ZN13CImageEncoder28GetInterfaceImplementationsLEPK4TUidiR6RArrayIS0_E @ 66 NONAME
	_ZN13CImageEncoder28GetInterfaceImplementationsLERK6RArrayI4TUidERS2_ @ 67 NONAME
	_ZN13CImageEncoder6CancelEv @ 68 NONAME
	_ZN13CImageEncoder7ConvertEP14TRequestStatusRK10CFbsBitmapPK15CFrameImageData @ 69 NONAME
	_ZN13CImageEncoder7PrepareEP14TRequestStatus @ 70 NONAME
	_ZN13CImageEncoder8DataNewLERP6HBufC8NS_8TOptionsE4TUidS4_S4_ @ 71 NONAME
	_ZN13CImageEncoder8DataNewLERP6HBufC8RK6TDesC8NS_8TOptionsE @ 72 NONAME
	_ZN13CImageEncoder8FileNewLER3RFsRK7TDesC16NS_8TOptionsE4TUidS6_S6_ @ 73 NONAME
	_ZN13CImageEncoder8FileNewLER3RFsRK7TDesC16RK6TDesC8NS_8TOptionsE @ 74 NONAME
	_ZN13CImageEncoder8FileNewLER5RFileNS_8TOptionsE4TUidS3_S3_ @ 75 NONAME
	_ZN13CImageEncoder8FileNewLER5RFileRK6TDesC8NS_8TOptionsE @ 76 NONAME
	_ZN13CImageEncoderC1Ev @ 77 NONAME
	_ZN13CImageEncoderC2Ev @ 78 NONAME
	_ZN13CImageEncoderD0Ev @ 79 NONAME
	_ZN13CImageEncoderD1Ev @ 80 NONAME
	_ZN13CImageEncoderD2Ev @ 81 NONAME
	_ZN15CFrameImageData10Reserved_1Ev @ 82 NONAME
	_ZN15CFrameImageData10Reserved_2Ev @ 83 NONAME
	_ZN15CFrameImageData10Reserved_3Ev @ 84 NONAME
	_ZN15CFrameImageData10Reserved_4Ev @ 85 NONAME
	_ZN15CFrameImageData12GetFrameDataEi @ 86 NONAME
	_ZN15CFrameImageData12GetImageDataEi @ 87 NONAME
	_ZN15CFrameImageData15AppendFrameDataEPK15TFrameDataBlock @ 88 NONAME
	_ZN15CFrameImageData15AppendImageDataEPK15TImageDataBlock @ 89 NONAME
	_ZN15CFrameImageData15InsertFrameDataEPK15TFrameDataBlocki @ 90 NONAME
	_ZN15CFrameImageData15InsertImageDataEPK15TImageDataBlocki @ 91 NONAME
	_ZN15CFrameImageData15RemoveFrameDataEi @ 92 NONAME
	_ZN15CFrameImageData15RemoveImageDataEi @ 93 NONAME
	_ZN15CFrameImageData17AppendImageBufferEPK6HBufC8 @ 94 NONAME
	_ZN15CFrameImageData4NewLER15CImageDataArrayi @ 95 NONAME
	_ZN15CFrameImageData4NewLEv @ 96 NONAME
	_ZN15CFrameImageDataD0Ev @ 97 NONAME
	_ZN15CFrameImageDataD1Ev @ 98 NONAME
	_ZN15CFrameImageDataD2Ev @ 99 NONAME
	_ZN15CImageReadCodec10ConstructLEv @ 100 NONAME
	_ZN15CImageReadCodec15InitFrameHeaderER10TFrameInfoR15CFrameImageData @ 101 NONAME
	_ZN15CImageReadCodec16ReservedVirtual1Ev @ 102 NONAME
	_ZN15CImageReadCodec16ReservedVirtual2Ev @ 103 NONAME
	_ZN15CImageReadCodec16ReservedVirtual3Ev @ 104 NONAME
	_ZN15CImageReadCodec16ReservedVirtual4Ev @ 105 NONAME
	_ZN15CImageReadCodec18GetNewDataPositionERiS0_ @ 106 NONAME
	_ZN15CImageReadCodec19ProcessFrameHeaderLER8TBufPtr8 @ 107 NONAME
	_ZN15CImageReadCodec8CompleteEv @ 108 NONAME
	_ZN15CImageReadCodecC2Ev @ 109 NONAME
	_ZN15CImageReadCodecD0Ev @ 110 NONAME
	_ZN15CImageReadCodecD1Ev @ 111 NONAME
	_ZN15CImageReadCodecD2Ev @ 112 NONAME
	_ZN16CImageWriteCodec10ConstructLEv @ 113 NONAME
	_ZN16CImageWriteCodec10InitFrameLER8TBufPtr8RK10CFbsBitmap @ 114 NONAME
	_ZN16CImageWriteCodec16ReservedVirtual1Ev @ 115 NONAME
	_ZN16CImageWriteCodec16ReservedVirtual2Ev @ 116 NONAME
	_ZN16CImageWriteCodec16ReservedVirtual3Ev @ 117 NONAME
	_ZN16CImageWriteCodec16ReservedVirtual4Ev @ 118 NONAME
	_ZN16CImageWriteCodec9SetSourceEPK10CFbsBitmap @ 119 NONAME
	_ZN16CImageWriteCodecC2Ev @ 120 NONAME
	_ZN16CImageWriteCodecD0Ev @ 121 NONAME
	_ZN16CImageWriteCodecD1Ev @ 122 NONAME
	_ZN16CImageWriteCodecD2Ev @ 123 NONAME
	_ZN16TImageConvScaler11SetScalingLERK5TSizeNS_14TScalerQualityEi @ 124 NONAME
	_ZN16TImageConvScaler11SetScalingLEiNS_14TScalerQualityE @ 125 NONAME
	_ZN16TImageConvScalerC1Ev @ 126 NONAME
	_ZN16TImageConvScalerC2Ev @ 127 NONAME
	_ZN17CFrameInfoStrings10SetFormatLERK7TDesC16 @ 128 NONAME
	_ZN17CFrameInfoStrings11SetDecoderLERK7TDesC16 @ 129 NONAME
	_ZN17CFrameInfoStrings11SetDetailsLERK7TDesC16 @ 130 NONAME
	_ZN17CFrameInfoStrings14SetDimensionsLERK7TDesC16 @ 131 NONAME
	_ZN17CFrameInfoStrings4NewLEv @ 132 NONAME
	_ZN17CFrameInfoStrings5NewLCEv @ 133 NONAME
	_ZN17CFrameInfoStrings9SetDepthLERK7TDesC16 @ 134 NONAME
	_ZN17CFrameInfoStringsD0Ev @ 135 NONAME
	_ZN17CFrameInfoStringsD1Ev @ 136 NONAME
	_ZN17CFrameInfoStringsD2Ev @ 137 NONAME
	_ZN17TDecodeStreamCapsC1EiRK5TSizeiiNS_11TNavigationE @ 138 NONAME
	_ZN17TDecodeStreamCapsC1Ev @ 139 NONAME
	_ZN17TDecodeStreamCapsC2EiRK5TSizeiiNS_11TNavigationE @ 140 NONAME
	_ZN17TDecodeStreamCapsC2Ev @ 141 NONAME
	_ZN17TEncodeStreamCapsC1EiRK5TSizeiNS_11TNavigationE @ 142 NONAME
	_ZN17TEncodeStreamCapsC1Ev @ 143 NONAME
	_ZN17TEncodeStreamCapsC2EiRK5TSizeiNS_11TNavigationE @ 144 NONAME
	_ZN17TEncodeStreamCapsC2Ev @ 145 NONAME
	_ZN18CIclRecognizerUtil12GetMimeTypeLERK6TDesC8RK7TDesC16R5TDes8 @ 146 NONAME
	_ZN18CIclRecognizerUtil4NewLEv @ 147 NONAME
	_ZN19TImageConvOperation13AddOperationLENS_10TOperationE @ 148 NONAME
	_ZN19TImageConvOperation19ClearOperationStackEv @ 149 NONAME
	_ZN19TImageConvOperationC1Ev @ 150 NONAME
	_ZN19TImageConvOperationC2Ev @ 151 NONAME
	_ZN21CImageTypeDescriptionD0Ev @ 152 NONAME
	_ZN21CImageTypeDescriptionD1Ev @ 153 NONAME
	_ZN21CImageTypeDescriptionD2Ev @ 154 NONAME
	_ZN22CFileExtensionMIMEType5NewLCERK6TDesC8S2_RK7TDesC164TUidS6_S6_ @ 155 NONAME
	_ZN22CFileExtensionMIMETypeD0Ev @ 156 NONAME
	_ZN22CFileExtensionMIMETypeD1Ev @ 157 NONAME
	_ZN22CFileExtensionMIMETypeD2Ev @ 158 NONAME
	_ZN24CImageProcessorReadCodec10ConstructLEv @ 159 NONAME
	_ZN24CImageProcessorReadCodec17SetImageProcessorEP15CImageProcessor @ 160 NONAME
	_ZN24CImageProcessorReadCodec3PosEv @ 161 NONAME
	_ZN24CImageProcessorReadCodec6SetPosERK6TPoint @ 162 NONAME
	_ZN24CImageProcessorReadCodecC2Ev @ 163 NONAME
	_ZN24CImageProcessorReadCodecD0Ev @ 164 NONAME
	_ZN24CImageProcessorReadCodecD1Ev @ 165 NONAME
	_ZN24CImageProcessorReadCodecD2Ev @ 166 NONAME
	_ZN24TImageConvStreamedDecode10InitFrameLE4TUidiN17TDecodeStreamCaps11TNavigationE @ 167 NONAME
	_ZN24TImageConvStreamedDecode13GetNextBlocksER14TRequestStatusR11CImageFrameiRiS4_ @ 168 NONAME
	_ZN24TImageConvStreamedDecode9GetBlocksER14TRequestStatusR11CImageFrameiiRi @ 169 NONAME
	_ZN24TImageConvStreamedDecodeC1Ev @ 170 NONAME
	_ZN24TImageConvStreamedDecodeC2Ev @ 171 NONAME
	_ZN24TImageConvStreamedEncode10InitFrameLE4TUidiRK5TSizeS3_N17TEncodeStreamCaps11TNavigationEPK15CFrameImageData @ 172 NONAME
	_ZN24TImageConvStreamedEncode12AppendBlocksER14TRequestStatusRK11CImageFramei @ 173 NONAME
	_ZN24TImageConvStreamedEncode8CompleteER14TRequestStatus @ 174 NONAME
	_ZN24TImageConvStreamedEncode9AddBlocksER14TRequestStatusRK11CImageFrameRKi @ 175 NONAME
	_ZN24TImageConvStreamedEncodeC1Ev @ 176 NONAME
	_ZN24TImageConvStreamedEncodeC2Ev @ 177 NONAME
	_ZN28CImageMaskProcessorReadCodec10ConstructLEv @ 178 NONAME
	_ZN28CImageMaskProcessorReadCodec16SetMaskProcessorEP15CImageProcessor @ 179 NONAME
	_ZN28CImageMaskProcessorReadCodecC2Ev @ 180 NONAME
	_ZN28CImageMaskProcessorReadCodecD0Ev @ 181 NONAME
	_ZN28CImageMaskProcessorReadCodecD1Ev @ 182 NONAME
	_ZN28CImageMaskProcessorReadCodecD2Ev @ 183 NONAME
	_ZN30CImplementationInformationType5DriveEv @ 184 NONAME
	_ZN30CImplementationInformationTypeD0Ev @ 185 NONAME
	_ZN30CImplementationInformationTypeD1Ev @ 186 NONAME
	_ZN30CImplementationInformationTypeD2Ev @ 187 NONAME
	_ZN33CImageProcessorReadCodecExtension10ConstructLEv @ 188 NONAME
	_ZN33CImageProcessorReadCodecExtensionC2Ev @ 189 NONAME
	_ZN33CImageProcessorReadCodecExtensionD0Ev @ 190 NONAME
	_ZN33CImageProcessorReadCodecExtensionD1Ev @ 191 NONAME
	_ZN33CImageProcessorReadCodecExtensionD2Ev @ 192 NONAME
	_ZN37CImageMaskProcessorReadCodecExtension10ConstructLEv @ 193 NONAME
	_ZN37CImageMaskProcessorReadCodecExtensionC2Ev @ 194 NONAME
	_ZN37CImageMaskProcessorReadCodecExtensionD0Ev @ 195 NONAME
	_ZN37CImageMaskProcessorReadCodecExtensionD1Ev @ 196 NONAME
	_ZN37CImageMaskProcessorReadCodecExtensionD2Ev @ 197 NONAME
	_ZNK11TScalerCaps15MaxUpscaleLimitEv @ 198 NONAME
	_ZNK11TScalerCaps17MaxDownscaleLimitEv @ 199 NONAME
	_ZNK11TScalerCaps21PowerOfTwoScalingOnlyEv @ 200 NONAME
	_ZNK11TScalerCaps23MustPreserveAspectRatioEv @ 201 NONAME
	_ZNK11TScalerCaps4SizeEv @ 202 NONAME
	_ZNK11TScalerCaps7VersionEv @ 203 NONAME
	_ZNK13CImageDecoder10FrameCountEv @ 204 NONAME
	_ZNK13CImageDecoder11ReducedSizeERK5TSizeiRS0_ @ 205 NONAME
	_ZNK13CImageDecoder13FrameCommentLEii @ 206 NONAME
	_ZNK13CImageDecoder13ImageCommentLEi @ 207 NONAME
	_ZNK13CImageDecoder15ReductionFactorERK5TSizeS2_ @ 208 NONAME
	_ZNK13CImageDecoder17ImplementationUidEv @ 209 NONAME
	_ZNK13CImageDecoder21NumberOfFrameCommentsEi @ 210 NONAME
	_ZNK13CImageDecoder21NumberOfImageCommentsEv @ 211 NONAME
	_ZNK13CImageDecoder31IsImageHeaderProcessingCompleteEv @ 212 NONAME
	_ZNK13CImageDecoder6PluginEv @ 213 NONAME
	_ZNK13CImageDecoder9FrameDataEi @ 214 NONAME
	_ZNK13CImageDecoder9FrameInfoEi @ 215 NONAME
	_ZNK13CImageDecoder9ImageTypeEiR4TUidS1_ @ 216 NONAME
	_ZNK13CImageEncoder17ImplementationUidEv @ 217 NONAME
	_ZNK13CImageEncoder6PluginEv @ 218 NONAME
	_ZNK15CFrameImageData12GetFrameDataEi @ 219 NONAME
	_ZNK15CFrameImageData12GetImageDataEi @ 220 NONAME
	_ZNK15CFrameImageData14FrameDataCountEv @ 221 NONAME
	_ZNK15CFrameImageData14ImageDataCountEv @ 222 NONAME
	_ZNK15CFrameImageData6AllocLEv @ 223 NONAME
	_ZNK15CImageReadCodec11ReducedSizeERK5TSizeiRS0_ @ 224 NONAME
	_ZNK15CImageReadCodec12CurrentFrameEv @ 225 NONAME
	_ZNK15CImageReadCodec15ReductionFactorERK5TSizeS2_ @ 226 NONAME
	_ZNK16CImageWriteCodec6SourceEv @ 227 NONAME
	_ZNK16TImageConvScaler15GetCapabilitiesER11TScalerCaps @ 228 NONAME
	_ZNK17CFrameInfoStrings10DimensionsEv @ 229 NONAME
	_ZNK17CFrameInfoStrings5CountEv @ 230 NONAME
	_ZNK17CFrameInfoStrings5DepthEv @ 231 NONAME
	_ZNK17CFrameInfoStrings6FormatEv @ 232 NONAME
	_ZNK17CFrameInfoStrings6StringEi @ 233 NONAME
	_ZNK17CFrameInfoStrings7DecoderEv @ 234 NONAME
	_ZNK17CFrameInfoStrings7DetailsEv @ 235 NONAME
	_ZNK17TDecodeStreamCaps10NavigationEv @ 236 NONAME
	_ZNK17TDecodeStreamCaps18StreamSizeInBlocksEv @ 237 NONAME
	_ZNK17TDecodeStreamCaps19MaxBlocksPerRequestEv @ 238 NONAME
	_ZNK17TDecodeStreamCaps20MinBlockSizeInPixelsEv @ 239 NONAME
	_ZNK17TDecodeStreamCaps23OptimalBlocksPerRequestEv @ 240 NONAME
	_ZNK17TDecodeStreamCaps4SizeEv @ 241 NONAME
	_ZNK17TDecodeStreamCaps7VersionEv @ 242 NONAME
	_ZNK17TEncodeStreamCaps10NavigationEv @ 243 NONAME
	_ZNK17TEncodeStreamCaps19MaxBlocksPerRequestEv @ 244 NONAME
	_ZNK17TEncodeStreamCaps20MinBlockSizeInPixelsEv @ 245 NONAME
	_ZNK17TEncodeStreamCaps23OptimalBlocksPerRequestEv @ 246 NONAME
	_ZNK17TEncodeStreamCaps4SizeEv @ 247 NONAME
	_ZNK17TEncodeStreamCaps7VersionEv @ 248 NONAME
	_ZNK19TImageConvOperation12CapabilitiesEv @ 249 NONAME
	_ZNK19TImageParameterData10IsFilenameEv @ 250 NONAME
	_ZNK19TImageParameterData13SourceDataPtrEv @ 251 NONAME
	_ZNK19TImageParameterData17SourceFilenamePtrEv @ 252 NONAME
	_ZNK21CImageTypeDescription11DescriptionEv @ 253 NONAME
	_ZNK21CImageTypeDescription7SubTypeEv @ 254 NONAME
	_ZNK21CImageTypeDescription9ImageTypeEv @ 255 NONAME
	_ZNK22CFileExtensionMIMEType11DisplayNameEv @ 256 NONAME
	_ZNK22CFileExtensionMIMEType12ImageSubTypeEv @ 257 NONAME
	_ZNK22CFileExtensionMIMEType13FileExtensionEv @ 258 NONAME
	_ZNK22CFileExtensionMIMEType17ImplementationUidEv @ 259 NONAME
	_ZNK22CFileExtensionMIMEType8MIMETypeEv @ 260 NONAME
	_ZNK22CFileExtensionMIMEType9ImageTypeEv @ 261 NONAME
	_ZNK24CImageProcessorReadCodec14ImageProcessorEv @ 262 NONAME
	_ZNK24CImageProcessorReadCodec3PosEv @ 263 NONAME
	_ZNK24TImageConvStreamedDecode13GetBufferSizeE4TUidR5TSizei @ 264 NONAME
	_ZNK24TImageConvStreamedDecode15GetCapabilitiesE4TUidiR17TDecodeStreamCaps @ 265 NONAME
	_ZNK24TImageConvStreamedDecode20GetSupportedFormatsLER6RArrayI4TUidERS1_ @ 266 NONAME
	_ZNK24TImageConvStreamedEncode15GetCapabilitiesE4TUidR17TEncodeStreamCaps @ 267 NONAME
	_ZNK24TImageConvStreamedEncode20GetSupportedFormatsLER6RArrayI4TUidERS1_ @ 268 NONAME
	_ZNK28CImageMaskProcessorReadCodec13MaskProcessorEv @ 269 NONAME
	_ZNK30CImplementationInformationType10OpaqueDataEv @ 270 NONAME
	_ZNK30CImplementationInformationType11DisplayNameEv @ 271 NONAME
	_ZNK30CImplementationInformationType17ImplementationUidEv @ 272 NONAME
	_ZNK30CImplementationInformationType7VersionEv @ 273 NONAME
	_ZNK30CImplementationInformationType8DataTypeEv @ 274 NONAME
	_ZNK33CImageProcessorReadCodecExtension14GetReducedSizeERK5TSizeiRS0_ @ 275 NONAME
	_ZNK33CImageProcessorReadCodecExtension18ScalingCoefficientERK5TSizeS2_ @ 276 NONAME
	_ZNK37CImageMaskProcessorReadCodecExtension14GetReducedSizeERK5TSizeiRS0_ @ 277 NONAME
	_ZNK37CImageMaskProcessorReadCodecExtension18ScalingCoefficientERK5TSizeS2_ @ 278 NONAME
	_ZTI10RAllocTest @ 279 NONAME
	_ZTI13CImageDecoder @ 280 NONAME
	_ZTI13CImageEncoder @ 281 NONAME
	_ZTI13CUtilityTimer @ 282 NONAME
	_ZTI13RTBufPtr8Test @ 283 NONAME
	_ZTI14CTestReadCodec @ 284 NONAME
	_ZTI14RTImageOpenOTB @ 285 NONAME
	_ZTI15CAsyncScheduler @ 286 NONAME
	_ZTI15CFrameImageData @ 287 NONAME
	_ZTI15CImageReadCodec @ 288 NONAME
	_ZTI15RTFrameInfoTest @ 289 NONAME
	_ZTI15RTImageDataTest @ 290 NONAME
	_ZTI16CFwExtTestScaler @ 291 NONAME
	_ZTI16CImageWriteCodec @ 292 NONAME
	_ZTI16RTGifCommentTest @ 293 NONAME
	_ZTI16RTGifLZWInfoTest @ 294 NONAME
	_ZTI16RTJpegQTableTest @ 295 NONAME
	_ZTI17CFrameInfoStrings @ 296 NONAME
	_ZTI17CFwExtTestPrepare @ 297 NONAME
	_ZTI17RTJpegCommentTest @ 298 NONAME
	_ZTI18CTestDecoderPlugin @ 299 NONAME
	_ZTI18RTBmpImageDataTest @ 300 NONAME
	_ZTI19CAsyncTestReadCodec @ 301 NONAME
	_ZTI19RTGifColorTableTest @ 302 NONAME
	_ZTI19RTImageDecDRMViaCAF @ 303 NONAME
	_ZTI19RTImageMimeTypeTest @ 304 NONAME
	_ZTI19RTJpegImageDataTest @ 305 NONAME
	_ZTI19RTMbmDecodeDataTest @ 306 NONAME
	_ZTI19RTMbmEncodeDataTest @ 307 NONAME
	_ZTI19RTTiffImageDataTest @ 308 NONAME
	_ZTI20CTestActiveScheduler @ 309 NONAME
	_ZTI20CTestDecodeConstruct @ 310 NONAME
	_ZTI20RCFrameImageDataTest @ 311 NONAME
	_ZTI20RTBmpCompressionTest @ 312 NONAME
	_ZTI20RTImageOpenAndDecode @ 313 NONAME
	_ZTI21CImageTypeDescription @ 314 NONAME
	_ZTI21RCExtendedDecoderTest @ 315 NONAME
	_ZTI21RCExtendedEncoderTest @ 316 NONAME
	_ZTI21RTGifImageControlTest @ 317 NONAME
	_ZTI22CFileExtensionMIMEType @ 318 NONAME
	_ZTI22CFwExtTestDecOperation @ 319 NONAME
	_ZTI22CFwExtTestEncOperation @ 320 NONAME
	_ZTI22CICLFrameworkTestSuite @ 321 NONAME
	_ZTI22RBadVerDecoderTestStep @ 322 NONAME
	_ZTI22RBadVerEncoderTestStep @ 323 NONAME
	_ZTI22RCFrameInfoStringsTest @ 324 NONAME
	_ZTI22RCImageDecoderPrivTest @ 325 NONAME
	_ZTI22RFwExtDecSupportedTest @ 326 NONAME
	_ZTI22RFwExtEncSupportedTest @ 327 NONAME
	_ZTI22RTImageDecDRMViewMthd1 @ 328 NONAME
	_ZTI22RTImageDecDRMViewMthd2 @ 329 NONAME
	_ZTI23CAsyncTestDecoderPlugin @ 330 NONAME
	_ZTI23RTImageDecDRMPrintMthd1 @ 331 NONAME
	_ZTI23RTPositionProcessorTest @ 332 NONAME
	_ZTI24CFwExtTestStreamedDecode @ 333 NONAME
	_ZTI24CFwExtTestStreamedEncode @ 334 NONAME
	_ZTI24CImageProcessorReadCodec @ 335 NONAME
	_ZTI24RCImageDecoderDecodeTest @ 336 NONAME
	_ZTI24RCImageDecoderIntentTest @ 337 NONAME
	_ZTI24RCImageDecoderStaticTest @ 338 NONAME
	_ZTI24RCImageEncoderEncodeTest @ 339 NONAME
	_ZTI24RCImageEncoderStaticTest @ 340 NONAME
	_ZTI24RTGifBackgroundColorTest @ 341 NONAME
	_ZTI24RTGifImageDescriptorTest @ 342 NONAME
	_ZTI24RTImageParameterDataTest @ 343 NONAME
	_ZTI25CAsyncTestDecodeConstruct @ 344 NONAME
	_ZTI25RCExtendedJpegDecoderTest @ 345 NONAME
	_ZTI25RThreadedDecodeCancelTest @ 346 NONAME
	_ZTI25RThreadedEncodeCancelTest @ 347 NONAME
	_ZTI26RCFrameImageDataAllocLTest @ 348 NONAME
	_ZTI26RCImageDecodeConstructTest @ 349 NONAME
	_ZTI26RCImageDecoderPrivTestBase @ 350 NONAME
	_ZTI26RCImageDecoderResolverTest @ 351 NONAME
	_ZTI26RCImageEncodeConstructTest @ 352 NONAME
	_ZTI26RCImageTypeDescriptionTest @ 353 NONAME
	_ZTI26RDecoderInvalidMimeTypeArg @ 354 NONAME
	_ZTI26REncoderInvalidMimeTypeArg @ 355 NONAME
	_ZTI26RSetThreadPriorityTestStep @ 356 NONAME
	_ZTI27MImageDecoderPrivSupportImp @ 357 NONAME
	_ZTI27MImageEncoderPrivSupportImp @ 358 NONAME
	_ZTI27RCFileExtensionMIMETypeTest @ 359 NONAME
	_ZTI27RCImageProcessorUtilityTest @ 360 NONAME
	_ZTI27RTImageDecDRMViewAllocMthd1 @ 361 NONAME
	_ZTI27RTImageDecDRMViewAllocMthd2 @ 362 NONAME
	_ZTI28CImageMaskProcessorReadCodec @ 363 NONAME
	_ZTI28RCImageDecoderMaskDecodeTest @ 364 NONAME
	_ZTI28RCImageDecoderPrivCustomTest @ 365 NONAME
	_ZTI28RCImageDecoderPrivDecodeTest @ 366 NONAME
	_ZTI28RCImageEncoderPrivCustomTest @ 367 NONAME
	_ZTI28RCImageEncoderPrivEncodeTest @ 368 NONAME
	_ZTI28RFwExtPNGDecNotSupportedTest @ 369 NONAME
	_ZTI28RFwExtPNGEncNotSupportedTest @ 370 NONAME
	_ZTI28RTImageDecDRMDefaContentTest @ 371 NONAME
	_ZTI29RCImageDecoderAsyncDecodeTest @ 372 NONAME
	_ZTI29RCImageEncoderAsyncEncodeTest @ 373 NONAME
	_ZTI29RTImageDecDRMViewDecTypeMthd2 @ 374 NONAME
	_ZTI29RTImageDecDRMViewImgTypeMthd2 @ 375 NONAME
	_ZTI29RTImageDecDRMViewInvalIdMthd1 @ 376 NONAME
	_ZTI29RTImageDecOpenDRMUnknownMthd1 @ 377 NONAME
	_ZTI29RTImageDecOpenDRMUnknownMthd2 @ 378 NONAME
	_ZTI30CImplementationInformationType @ 379 NONAME
	_ZTI30RCImageDecoderPrivSetDataLTest @ 380 NONAME
	_ZTI30RCImageDecoderPrivSetFileLTest @ 381 NONAME
	_ZTI30RCImageEncoderPrivRAEncodeTest @ 382 NONAME
	_ZTI30RTImageDecDRMViewUniqueIdMthd1 @ 383 NONAME
	_ZTI30RTImageDecOpenDRMConsumeRights @ 384 NONAME
	_ZTI30RTImageDecOpenDRMNoRightsMthd1 @ 385 NONAME
	_ZTI30RTImageDecOpenDRMNoRightsMthd2 @ 386 NONAME
	_ZTI31RCImageDecoderPrivReadDataLTest @ 387 NONAME
	_ZTI32RCBufferedImageDecoderDecodeTest @ 388 NONAME
	_ZTI33CImageProcessorReadCodecExtension @ 389 NONAME
	_ZTI33RCImageDecoderPrivAsyncDecodeTest @ 390 NONAME
	_ZTI33RTImageDecOpenDRMRightsCountMthd1 @ 391 NONAME
	_ZTI33RTImageDecOpenDRMRightsCountMthd2 @ 392 NONAME
	_ZTI34RCBufferedImageDecoderFunctionTest @ 393 NONAME
	_ZTI35RCImplementationInformationTypeTest @ 394 NONAME
	_ZTI37CImageMaskProcessorReadCodecExtension @ 395 NONAME
	_ZTI37RCFrameImageDataAppendImageBufferTest @ 396 NONAME
	_ZTI37RTImageDecOpenDRMConsumeRightsOnError @ 397 NONAME
	_ZTI38RTImageDecOpenDRMConsumeRightsOnError2 @ 398 NONAME
	_ZTI38RTImageDecOpenDRMConsumeRightsOnError3 @ 399 NONAME
	_ZTI40RCImageDecoderPrivFrameInfoStringsLCTest @ 400 NONAME
	_ZTI45RCImageDecoderPrivHandleNewlyOpenedImageLTest @ 401 NONAME
	_ZTI47RCImageDecoderPrivContinueProcessingHeaderLTest @ 402 NONAME
	_ZTV10RAllocTest @ 403 NONAME
	_ZTV13CImageDecoder @ 404 NONAME
	_ZTV13CImageEncoder @ 405 NONAME
	_ZTV13CUtilityTimer @ 406 NONAME
	_ZTV13RTBufPtr8Test @ 407 NONAME
	_ZTV14CTestReadCodec @ 408 NONAME
	_ZTV14RTImageOpenOTB @ 409 NONAME
	_ZTV15CAsyncScheduler @ 410 NONAME
	_ZTV15CFrameImageData @ 411 NONAME
	_ZTV15CImageReadCodec @ 412 NONAME
	_ZTV15RTFrameInfoTest @ 413 NONAME
	_ZTV15RTImageDataTest @ 414 NONAME
	_ZTV16CFwExtTestScaler @ 415 NONAME
	_ZTV16CImageWriteCodec @ 416 NONAME
	_ZTV16RTGifCommentTest @ 417 NONAME
	_ZTV16RTGifLZWInfoTest @ 418 NONAME
	_ZTV16RTJpegQTableTest @ 419 NONAME
	_ZTV17CFrameInfoStrings @ 420 NONAME
	_ZTV17CFwExtTestPrepare @ 421 NONAME
	_ZTV17RTJpegCommentTest @ 422 NONAME
	_ZTV18CTestDecoderPlugin @ 423 NONAME
	_ZTV18RTBmpImageDataTest @ 424 NONAME
	_ZTV19CAsyncTestReadCodec @ 425 NONAME
	_ZTV19RTGifColorTableTest @ 426 NONAME
	_ZTV19RTImageDecDRMViaCAF @ 427 NONAME
	_ZTV19RTImageMimeTypeTest @ 428 NONAME
	_ZTV19RTJpegImageDataTest @ 429 NONAME
	_ZTV19RTMbmDecodeDataTest @ 430 NONAME
	_ZTV19RTMbmEncodeDataTest @ 431 NONAME
	_ZTV19RTTiffImageDataTest @ 432 NONAME
	_ZTV20CTestActiveScheduler @ 433 NONAME
	_ZTV20CTestDecodeConstruct @ 434 NONAME
	_ZTV20RCFrameImageDataTest @ 435 NONAME
	_ZTV20RTBmpCompressionTest @ 436 NONAME
	_ZTV20RTImageOpenAndDecode @ 437 NONAME
	_ZTV21CImageTypeDescription @ 438 NONAME
	_ZTV21RCExtendedDecoderTest @ 439 NONAME
	_ZTV21RCExtendedEncoderTest @ 440 NONAME
	_ZTV21RTGifImageControlTest @ 441 NONAME
	_ZTV22CFileExtensionMIMEType @ 442 NONAME
	_ZTV22CFwExtTestDecOperation @ 443 NONAME
	_ZTV22CFwExtTestEncOperation @ 444 NONAME
	_ZTV22CICLFrameworkTestSuite @ 445 NONAME
	_ZTV22RBadVerDecoderTestStep @ 446 NONAME
	_ZTV22RBadVerEncoderTestStep @ 447 NONAME
	_ZTV22RCFrameInfoStringsTest @ 448 NONAME
	_ZTV22RCImageDecoderPrivTest @ 449 NONAME
	_ZTV22RFwExtDecSupportedTest @ 450 NONAME
	_ZTV22RFwExtEncSupportedTest @ 451 NONAME
	_ZTV22RTImageDecDRMViewMthd1 @ 452 NONAME
	_ZTV22RTImageDecDRMViewMthd2 @ 453 NONAME
	_ZTV23CAsyncTestDecoderPlugin @ 454 NONAME
	_ZTV23RTImageDecDRMPrintMthd1 @ 455 NONAME
	_ZTV23RTPositionProcessorTest @ 456 NONAME
	_ZTV24CFwExtTestStreamedDecode @ 457 NONAME
	_ZTV24CFwExtTestStreamedEncode @ 458 NONAME
	_ZTV24CImageProcessorReadCodec @ 459 NONAME
	_ZTV24RCImageDecoderDecodeTest @ 460 NONAME
	_ZTV24RCImageDecoderIntentTest @ 461 NONAME
	_ZTV24RCImageDecoderStaticTest @ 462 NONAME
	_ZTV24RCImageEncoderEncodeTest @ 463 NONAME
	_ZTV24RCImageEncoderStaticTest @ 464 NONAME
	_ZTV24RTGifBackgroundColorTest @ 465 NONAME
	_ZTV24RTGifImageDescriptorTest @ 466 NONAME
	_ZTV24RTImageParameterDataTest @ 467 NONAME
	_ZTV25CAsyncTestDecodeConstruct @ 468 NONAME
	_ZTV25RCExtendedJpegDecoderTest @ 469 NONAME
	_ZTV25RThreadedDecodeCancelTest @ 470 NONAME
	_ZTV25RThreadedEncodeCancelTest @ 471 NONAME
	_ZTV26RCFrameImageDataAllocLTest @ 472 NONAME
	_ZTV26RCImageDecodeConstructTest @ 473 NONAME
	_ZTV26RCImageDecoderPrivTestBase @ 474 NONAME
	_ZTV26RCImageDecoderResolverTest @ 475 NONAME
	_ZTV26RCImageEncodeConstructTest @ 476 NONAME
	_ZTV26RCImageTypeDescriptionTest @ 477 NONAME
	_ZTV26RDecoderInvalidMimeTypeArg @ 478 NONAME
	_ZTV26REncoderInvalidMimeTypeArg @ 479 NONAME
	_ZTV26RSetThreadPriorityTestStep @ 480 NONAME
	_ZTV27MImageDecoderPrivSupportImp @ 481 NONAME
	_ZTV27MImageEncoderPrivSupportImp @ 482 NONAME
	_ZTV27RCFileExtensionMIMETypeTest @ 483 NONAME
	_ZTV27RCImageProcessorUtilityTest @ 484 NONAME
	_ZTV27RTImageDecDRMViewAllocMthd1 @ 485 NONAME
	_ZTV27RTImageDecDRMViewAllocMthd2 @ 486 NONAME
	_ZTV28CImageMaskProcessorReadCodec @ 487 NONAME
	_ZTV28RCImageDecoderMaskDecodeTest @ 488 NONAME
	_ZTV28RCImageDecoderPrivCustomTest @ 489 NONAME
	_ZTV28RCImageDecoderPrivDecodeTest @ 490 NONAME
	_ZTV28RCImageEncoderPrivCustomTest @ 491 NONAME
	_ZTV28RCImageEncoderPrivEncodeTest @ 492 NONAME
	_ZTV28RFwExtPNGDecNotSupportedTest @ 493 NONAME
	_ZTV28RFwExtPNGEncNotSupportedTest @ 494 NONAME
	_ZTV28RTImageDecDRMDefaContentTest @ 495 NONAME
	_ZTV29RCImageDecoderAsyncDecodeTest @ 496 NONAME
	_ZTV29RCImageEncoderAsyncEncodeTest @ 497 NONAME
	_ZTV29RTImageDecDRMViewDecTypeMthd2 @ 498 NONAME
	_ZTV29RTImageDecDRMViewImgTypeMthd2 @ 499 NONAME
	_ZTV29RTImageDecDRMViewInvalIdMthd1 @ 500 NONAME
	_ZTV29RTImageDecOpenDRMUnknownMthd1 @ 501 NONAME
	_ZTV29RTImageDecOpenDRMUnknownMthd2 @ 502 NONAME
	_ZTV30CImplementationInformationType @ 503 NONAME
	_ZTV30RCImageDecoderPrivSetDataLTest @ 504 NONAME
	_ZTV30RCImageDecoderPrivSetFileLTest @ 505 NONAME
	_ZTV30RCImageEncoderPrivRAEncodeTest @ 506 NONAME
	_ZTV30RTImageDecDRMViewUniqueIdMthd1 @ 507 NONAME
	_ZTV30RTImageDecOpenDRMConsumeRights @ 508 NONAME
	_ZTV30RTImageDecOpenDRMNoRightsMthd1 @ 509 NONAME
	_ZTV30RTImageDecOpenDRMNoRightsMthd2 @ 510 NONAME
	_ZTV31RCImageDecoderPrivReadDataLTest @ 511 NONAME
	_ZTV32RCBufferedImageDecoderDecodeTest @ 512 NONAME
	_ZTV33CImageProcessorReadCodecExtension @ 513 NONAME
	_ZTV33RCImageDecoderPrivAsyncDecodeTest @ 514 NONAME
	_ZTV33RTImageDecOpenDRMRightsCountMthd1 @ 515 NONAME
	_ZTV33RTImageDecOpenDRMRightsCountMthd2 @ 516 NONAME
	_ZTV34RCBufferedImageDecoderFunctionTest @ 517 NONAME
	_ZTV35RCImplementationInformationTypeTest @ 518 NONAME
	_ZTV37CImageMaskProcessorReadCodecExtension @ 519 NONAME
	_ZTV37RCFrameImageDataAppendImageBufferTest @ 520 NONAME
	_ZTV37RTImageDecOpenDRMConsumeRightsOnError @ 521 NONAME
	_ZTV38RTImageDecOpenDRMConsumeRightsOnError2 @ 522 NONAME
	_ZTV38RTImageDecOpenDRMConsumeRightsOnError3 @ 523 NONAME
	_ZTV40RCImageDecoderPrivFrameInfoStringsLCTest @ 524 NONAME
	_ZTV45RCImageDecoderPrivHandleNewlyOpenedImageLTest @ 525 NONAME
	_ZTV47RCImageDecoderPrivContinueProcessingHeaderLTest @ 526 NONAME
	_ZThn12_NK33CImageProcessorReadCodecExtension14GetReducedSizeERK5TSizeiRS0_ @ 527 NONAME
	_ZThn12_NK33CImageProcessorReadCodecExtension18ScalingCoefficientERK5TSizeS2_ @ 528 NONAME
	_ZThn16_NK37CImageMaskProcessorReadCodecExtension14GetReducedSizeERK5TSizeiRS0_ @ 529 NONAME
	_ZThn16_NK37CImageMaskProcessorReadCodecExtension18ScalingCoefficientERK5TSizeS2_ @ 530 NONAME
	_ZTI41RThreadedFileEncodeCancelAfterConvertTest @ 531 NONAME
	_ZTV41RThreadedFileEncodeCancelAfterConvertTest @ 532 NONAME
	_ZTI47RThreadedFileHandleEncodeCancelAfterConvertTest @ 533 NONAME
	_ZTV47RThreadedFileHandleEncodeCancelAfterConvertTest @ 534 NONAME
	_ZTI29RThreadedFileEncodeDeleteTest @ 535 NONAME
	_ZTI35RThreadedFileHandleEncodeDeleteTest @ 536 NONAME
	_ZTV29RThreadedFileEncodeDeleteTest @ 537 NONAME
	_ZTV35RThreadedFileHandleEncodeDeleteTest @ 538 NONAME

