EXPORTS
	_Z29NewTestSuiteBitmapTransformsLv @ 1 NONAME
	_ZTI15CActiveListener @ 2 NONAME ; #<TI>#
	_ZTI19CMmIclBtransI0201Cp @ 3 NONAME ; #<TI>#
	_ZTI19CMmIclBtransI0202Cp @ 4 NONAME ; #<TI>#
	_ZTI19CMmIclBtransI0203Cp @ 5 NONAME ; #<TI>#
	_ZTI19CMmIclBtransI0204Cp @ 6 NONAME ; #<TI>#
	_ZTI19CMmIclBtransI0205Cp @ 7 NONAME ; #<TI>#
	_ZTI19CMmIclBtransI0206Cp @ 8 NONAME ; #<TI>#
	_ZTI19CMmIclBtransI0301Cp @ 9 NONAME ; #<TI>#
	_ZTI19CMmIclBtransI0302Cp @ 10 NONAME ; #<TI>#
	_ZTI19CMmIclBtransI0303Hp @ 11 NONAME ; #<TI>#
	_ZTI19CMmIclBtransI0304Cp @ 12 NONAME ; #<TI>#
	_ZTI19CMmIclBtransI0305Cp @ 13 NONAME ; #<TI>#
	_ZTI25CTestStepBitmapTransforms @ 14 NONAME ; #<TI>#
	_ZTI26CTestSuiteBitmapTransforms @ 15 NONAME ; #<TI>#
	_ZTV15CActiveListener @ 16 NONAME ; #<VT>#
	_ZTV19CMmIclBtransI0201Cp @ 17 NONAME ; #<VT>#
	_ZTV19CMmIclBtransI0202Cp @ 18 NONAME ; #<VT>#
	_ZTV19CMmIclBtransI0203Cp @ 19 NONAME ; #<VT>#
	_ZTV19CMmIclBtransI0204Cp @ 20 NONAME ; #<VT>#
	_ZTV19CMmIclBtransI0205Cp @ 21 NONAME ; #<VT>#
	_ZTV19CMmIclBtransI0206Cp @ 22 NONAME ; #<VT>#
	_ZTV19CMmIclBtransI0301Cp @ 23 NONAME ; #<VT>#
	_ZTV19CMmIclBtransI0302Cp @ 24 NONAME ; #<VT>#
	_ZTV19CMmIclBtransI0303Hp @ 25 NONAME ; #<VT>#
	_ZTV19CMmIclBtransI0304Cp @ 26 NONAME ; #<VT>#
	_ZTV19CMmIclBtransI0305Cp @ 27 NONAME ; #<VT>#
	_ZTV25CTestStepBitmapTransforms @ 28 NONAME ; #<VT>#
	_ZTV26CTestSuiteBitmapTransforms @ 29 NONAME ; #<VT>#
	_ZTI24CMmIclBitmapScaleLowMem1 @ 30 NONAME ; #<TI>#
	_ZTV24CMmIclBitmapScaleLowMem1 @ 31 NONAME ; #<VT>#
	_ZTI23CMmIclBitmapScaleSpeed1 @ 32 NONAME ; #<TI>#
	_ZTI23CMmIclBitmapScaleSpeed2 @ 33 NONAME ; #<TI>#
	_ZTI26CMmIclBitmapScaleUpAndDown @ 34 NONAME ; #<TI>#
	_ZTI27CMmIclBitmapScaleSpeedAlloc @ 35 NONAME ; #<TI>#
	_ZTI28CMmIclBitmapScaleMaxMedSpeed @ 36 NONAME ; #<TI>#
	_ZTI28CMmIclBitmapScaleMedMinSpeed @ 37 NONAME ; #<TI>#
	_ZTI31CMmIclBitmapScale0By0To100By100 @ 38 NONAME ; #<TI>#
	_ZTI31CMmIclBitmapScale0By100To200By0 @ 39 NONAME ; #<TI>#
	_ZTI33CMmIclBitmapScale0By100To100By100 @ 40 NONAME ; #<TI>#
	_ZTI33CMmIclBitmapScale100By0To100By100 @ 41 NONAME ; #<TI>#
	_ZTI33CMmIclBitmapScale100By100To100By1 @ 42 NONAME ; #<TI>#
	_ZTI33CMmIclBitmapScale100By100To1By100 @ 43 NONAME ; #<TI>#
	_ZTI33CMmIclBitmapScale100By1To100By100 @ 44 NONAME ; #<TI>#
	_ZTI33CMmIclBitmapScale1By100To100By100 @ 45 NONAME ; #<TI>#
	_ZTI33CMmIclBitmapScaleStretchAndSquash @ 46 NONAME ; #<TI>#
	_ZTV23CMmIclBitmapScaleSpeed1 @ 47 NONAME ; #<VT>#
	_ZTV23CMmIclBitmapScaleSpeed2 @ 48 NONAME ; #<VT>#
	_ZTV26CMmIclBitmapScaleUpAndDown @ 49 NONAME ; #<VT>#
	_ZTV27CMmIclBitmapScaleSpeedAlloc @ 50 NONAME ; #<VT>#
	_ZTV28CMmIclBitmapScaleMaxMedSpeed @ 51 NONAME ; #<VT>#
	_ZTV28CMmIclBitmapScaleMedMinSpeed @ 52 NONAME ; #<VT>#
	_ZTV31CMmIclBitmapScale0By0To100By100 @ 53 NONAME ; #<VT>#
	_ZTV31CMmIclBitmapScale0By100To200By0 @ 54 NONAME ; #<VT>#
	_ZTV33CMmIclBitmapScale0By100To100By100 @ 55 NONAME ; #<VT>#
	_ZTV33CMmIclBitmapScale100By0To100By100 @ 56 NONAME ; #<VT>#
	_ZTV33CMmIclBitmapScale100By100To100By1 @ 57 NONAME ; #<VT>#
	_ZTV33CMmIclBitmapScale100By100To1By100 @ 58 NONAME ; #<VT>#
	_ZTV33CMmIclBitmapScale100By1To100By100 @ 59 NONAME ; #<VT>#
	_ZTV33CMmIclBitmapScale1By100To100By100 @ 60 NONAME ; #<VT>#
	_ZTV33CMmIclBitmapScaleStretchAndSquash @ 61 NONAME ; #<VT>#

